target datalayout = "e-m:e-p270:32:32-p271:32:32-p272:64:64-i64:64-i128:128-f80:128-n8:16:32:64-S128"
target triple = "x86_64-pc-linux-gnu"

%struct.slurm_conf_t = type { i64, ptr, i16, ptr, ptr, ptr, ptr, ptr, i16, ptr, ptr, ptr, ptr, ptr, ptr, ptr, i16, ptr, ptr, ptr, ptr, i16, ptr, ptr, ptr, i64, ptr, ptr, ptr, ptr, i16, ptr, ptr, i16, i32, ptr, i32, ptr, i32, i32, ptr, ptr, i64, i64, ptr, i16, i16, ptr, i32, i32, ptr, i32, ptr, i32, i16, i16, i16, ptr, i16, i16, ptr, ptr, i32, i16, i16, ptr, i32, i16, ptr, ptr, ptr, ptr, i16, ptr, ptr, ptr, ptr, i32, ptr, ptr, ptr, ptr, i16, i16, ptr, i32, i32, i32, i16, i16, ptr, ptr, i16, ptr, ptr, i32, i32, i32, i32, i32, i64, i32, i32, i16, ptr, ptr, i32, ptr, ptr, ptr, i16, i32, ptr, ptr, i16, ptr, ptr, i32, i16, ptr, ptr, ptr, ptr, i32, i32, i16, i16, i32, ptr, i16, ptr, i32, i32, i32, i32, i32, i32, ptr, i16, ptr, ptr, i32, i16, ptr, i32, i16, i16, ptr, ptr, ptr, i16, ptr, ptr, ptr, ptr, i16, i16, ptr, i16, ptr, i16, ptr, i16, ptr, i16, ptr, ptr, ptr, ptr, i16, ptr, ptr, ptr, i32, ptr, i32, ptr, ptr, i16, ptr, ptr, i32, i16, ptr, ptr, i16, i16, ptr, i16, ptr, ptr, ptr, i32, ptr, i16, i16, ptr, ptr, ptr, ptr, ptr, ptr, ptr, ptr, i16, i32, i16, ptr, ptr, ptr, ptr, i32, ptr, ptr, ptr, i16, ptr, ptr, ptr, i16, ptr, i16, ptr, i16, i16, ptr }

@slurm_conf = external global %struct.slurm_conf_t, align 8
@node_record_count = external global i32, align 4
@.str.10 = private unnamed_addr constant [20 x i8] c"max_dbd_msg_action=\00", align 1
@.str.11 = private unnamed_addr constant [8 x i8] c"discard\00", align 1
@max_dbd_msg_action = internal global i32 0, align 4
@.str.12 = private unnamed_addr constant [5 x i8] c"exit\00", align 1
@.str.13 = private unnamed_addr constant [63 x i8] c"Unknown SlurmctldParameters option for max_dbd_msg_action '%s'\00", align 1

; Function Attrs: nounwind uwtable
define dso_local void @slurmdbd_agent_config_setup() #0 {
  %1 = alloca ptr, align 8
  %2 = alloca ptr, align 8
  call void @llvm.lifetime.start.p0(i64 8, ptr %1) #9
  %3 = load i32, ptr getelementptr inbounds nuw (%struct.slurm_conf_t, ptr @slurm_conf, i32 0, i32 97), align 8
  %4 = icmp ne i32 %3, 0
  br i1 %4, label %21, label %5

5:                                                ; preds = %0
  %6 = load i32, ptr getelementptr inbounds nuw (%struct.slurm_conf_t, ptr @slurm_conf, i32 0, i32 98), align 4
  %7 = mul i32 %6, 2
  %8 = load i32, ptr @node_record_count, align 4
  %9 = mul nsw i32 %8, 4
  %10 = add i32 %7, %9
  %11 = icmp ugt i32 10000, %10
  br i1 %11, label %12, label %13

12:                                               ; preds = %5
  br label %19

13:                                               ; preds = %5
  %14 = load i32, ptr getelementptr inbounds nuw (%struct.slurm_conf_t, ptr @slurm_conf, i32 0, i32 98), align 4
  %15 = mul i32 %14, 2
  %16 = load i32, ptr @node_record_count, align 4
  %17 = mul nsw i32 %16, 4
  %18 = add i32 %15, %17
  br label %19

19:                                               ; preds = %13, %12
  %20 = phi i32 [ 10000, %12 ], [ %18, %13 ]
  store i32 %20, ptr getelementptr inbounds nuw (%struct.slurm_conf_t, ptr @slurm_conf, i32 0, i32 97), align 8
  br label %21

21:                                               ; preds = %19, %0
  %22 = load ptr, ptr getelementptr inbounds nuw (%struct.slurm_conf_t, ptr @slurm_conf, i32 0, i32 187), align 8
  %23 = call ptr @slurm_xstrcasestr(ptr noundef %22, ptr noundef @.str.10)
  store ptr %23, ptr %1, align 8
  %24 = icmp ne ptr %23, null
  br i1 %24, label %25, label %50

25:                                               ; preds = %21
  call void @llvm.lifetime.start.p0(i64 8, ptr %2) #9
  %26 = load ptr, ptr %1, align 8
  %27 = getelementptr inbounds i8, ptr %26, i64 19
  %28 = call ptr @slurm_xstrdup(ptr noundef %27)
  store ptr %28, ptr %2, align 8
  %29 = load ptr, ptr %2, align 8
  %30 = call ptr @strchr(ptr noundef %29, i32 noundef 44) #12
  store ptr %30, ptr %1, align 8
  %31 = load ptr, ptr %1, align 8
  %32 = icmp ne ptr %31, null
  br i1 %32, label %33, label %36

33:                                               ; preds = %25
  %34 = load ptr, ptr %1, align 8
  %35 = getelementptr inbounds i8, ptr %34, i64 0
  store i8 0, ptr %35, align 1
  br label %36

36:                                               ; preds = %33, %25
  %37 = load ptr, ptr %2, align 8
  %38 = call i32 @slurm_xstrcasecmp(ptr noundef %37, ptr noundef @.str.11)
  %39 = icmp ne i32 %38, 0
  br i1 %39, label %41, label %40

40:                                               ; preds = %36
  store i32 0, ptr @max_dbd_msg_action, align 4
  br label %49

41:                                               ; preds = %36
  %42 = load ptr, ptr %2, align 8
  %43 = call i32 @slurm_xstrcasecmp(ptr noundef %42, ptr noundef @.str.12)
  %44 = icmp ne i32 %43, 0
  br i1 %44, label %46, label %45

45:                                               ; preds = %41
  store i32 1, ptr @max_dbd_msg_action, align 4
  br label %48

46:                                               ; preds = %41
  %47 = load ptr, ptr %2, align 8
  call void (ptr, ...) @slurm_fatal(ptr noundef @.str.13, ptr noundef %47) #11
  unreachable

48:                                               ; preds = %45
  br label %49

49:                                               ; preds = %48, %40
  call void @slurm_xfree(ptr noundef %2)
  call void @llvm.lifetime.end.p0(i64 8, ptr %2) #9
  br label %51

50:                                               ; preds = %21
  store i32 0, ptr @max_dbd_msg_action, align 4
  br label %51

51:                                               ; preds = %50, %49
  call void @llvm.lifetime.end.p0(i64 8, ptr %1) #9
  ret void
}