; Function Attrs: nounwind uwtable
define dso_local void @slurmdbd_agent_config_setup() local_unnamed_addr #0 {
  %1 = alloca ptr, align 8
  %2 = load i32, ptr getelementptr inbounds nuw (i8, ptr @slurm_conf, i64 656), align 8
  %.not = icmp eq i32 %2, 0
  br i1 %.not, label %3, label %9

3:                                                ; preds = %0
  %4 = load i32, ptr getelementptr inbounds nuw (i8, ptr @slurm_conf, i64 660), align 4
  %5 = shl i32 %4, 1
  %6 = load i32, ptr @node_record_count, align 4
  %7 = shl nsw i32 %6, 2
  %8 = add i32 %7, %5
  %spec.select = tail call i32 @llvm.umax.i32(i32 %8, i32 10000)
  store i32 %spec.select, ptr getelementptr inbounds nuw (i8, ptr @slurm_conf, i64 656), align 8
  br label %9

9:                                                ; preds = %3, %0
  %10 = load ptr, ptr getelementptr inbounds nuw (i8, ptr @slurm_conf, i64 1248), align 8
  %11 = tail call ptr @slurm_xstrcasestr(ptr noundef %10, ptr noundef nonnull @.str.10) #13
  %.not5 = icmp eq ptr %11, null
  br i1 %.not5, label %23, label %12

12:                                               ; preds = %9
  call void @llvm.lifetime.start.p0(i64 8, ptr nonnull %1) #13
  %13 = getelementptr inbounds nuw i8, ptr %11, i64 19
  %14 = tail call ptr @slurm_xstrdup(ptr noundef nonnull %13) #13
  store ptr %14, ptr %1, align 8
  %15 = tail call ptr @strchr(ptr noundef nonnull dereferenceable(1) %14, i32 noundef 44) #16
  %.not6 = icmp eq ptr %15, null
  br i1 %.not6, label %17, label %16

16:                                               ; preds = %12
  store i8 0, ptr %15, align 1
  br label %17

17:                                               ; preds = %16, %12
  %18 = tail call i32 @slurm_xstrcasecmp(ptr noundef nonnull %14, ptr noundef nonnull @.str.11) #13
  %.not7 = icmp ne i32 %18, 0
  br i1 %.not7, label %19, label %22

19:                                               ; preds = %17
  %20 = tail call i32 @slurm_xstrcasecmp(ptr noundef nonnull %14, ptr noundef nonnull @.str.12) #13
  %.not8 = icmp eq i32 %20, 0
  br i1 %.not8, label %22, label %21

21:                                               ; preds = %19
  tail call void (ptr, ...) @slurm_fatal(ptr noundef nonnull @.str.13, ptr noundef nonnull %14) #15
  unreachable

22:                                               ; preds = %19, %17
  store i1 %.not7, ptr @max_dbd_msg_action, align 4
  call void @slurm_xfree(ptr noundef nonnull %1) #13
  call void @llvm.lifetime.end.p0(i64 8, ptr nonnull %1) #13
  br label %24

23:                                               ; preds = %9
  store i1 false, ptr @max_dbd_msg_action, align 4
  br label %24

24:                                               ; preds = %23, %22
  ret void
}